; Function Attrs: nounwind uwtable
define i32 @Gia_ManBoxNum(ptr noundef readonly captures(none) %0) local_unnamed_addr #0 {
  %2 = getelementptr inbounds nuw i8, ptr %0, i64 736
  %3 = load ptr, ptr %2, align 8, !tbaa !3
  %.not = icmp eq ptr %3, null
  br i1 %.not, label %6, label %4

4:                                                ; preds = %1
  %5 = tail call i32 @Tim_ManBoxNum(ptr noundef nonnull %3) #20
  br label %6

6:                                                ; preds = %1, %4
  %7 = phi i32 [ %5, %4 ], [ 0, %1 ]
  ret i32 %7
}